; Function Attrs: mustprogress nofree norecurse nosync nounwind memory(read, argmem: readwrite, inaccessiblemem: none) uwtable
define { i64, ptr } @_ZN3nix13nextComponentERPKcS1_(ptr nocapture noundef nonnull align 8 dereferenceable(8) %0, ptr noundef readnone %1) local_unnamed_addr #6 {
  %.promoted = load ptr, ptr %0, align 8
  %.not49 = icmp eq ptr %.promoted, %1
  br i1 %.not49, label %.loopexit, label %.lr.ph

.lr.ph:                                           ; preds = %2, %.critedge2
  %.promoted54 = phi ptr [ %4, %.critedge2 ], [ %.promoted, %2 ]
  %3 = load i8, ptr %.promoted54, align 1
  %.off = add i8 %3, -45
  %switch = icmp ult i8 %.off, 2
  br i1 %switch, label %.critedge2, label %.critedge

.critedge2:                                       ; preds = %.lr.ph
  %4 = getelementptr inbounds i8, ptr %.promoted54, i64 1
  store ptr %4, ptr %0, align 8
  %.not = icmp eq ptr %4, %1
  br i1 %.not, label %.loopexit, label %.lr.ph, !llvm.loop !9

.critedge:                                        ; preds = %.lr.ph
  %5 = sext i8 %3 to i32
  %isdigittmp = add nsw i32 %5, -48
  %isdigit = icmp ult i32 %isdigittmp, 10
  %.not3955 = icmp eq ptr %.promoted54, %1
  br i1 %isdigit, label %.preheader, label %.preheader46

.preheader46:                                     ; preds = %.critedge
  br i1 %.not3955, label %.critedge4, label %.lr.ph52

.preheader:                                       ; preds = %.critedge
  br i1 %.not3955, label %.critedge4, label %.lr.ph56

.lr.ph56:                                         ; preds = %.preheader, %9
  %6 = phi ptr [ %10, %9 ], [ %.promoted54, %.preheader ]
  %7 = load i8, ptr %6, align 1
  %8 = sext i8 %7 to i32
  %isdigittmp40 = add nsw i32 %8, -48
  %isdigit41 = icmp ult i32 %isdigittmp40, 10
  br i1 %isdigit41, label %9, label %.critedge4

9:                                                ; preds = %.lr.ph56
  %10 = getelementptr inbounds i8, ptr %6, i64 1
  store ptr %10, ptr %0, align 8
  %.not39 = icmp eq ptr %10, %1
  br i1 %.not39, label %.critedge4, label %.lr.ph56, !llvm.loop !10

.lr.ph52:                                         ; preds = %.preheader46, %14
  %11 = phi ptr [ %15, %14 ], [ %.promoted54, %.preheader46 ]
  %12 = load i8, ptr %11, align 1
  %.fr45 = freeze i8 %12
  %13 = sext i8 %.fr45 to i32
  %isdigittmp35 = add nsw i32 %13, -48
  %isdigit36 = icmp ult i32 %isdigittmp35, 10
  %.off43 = add i8 %.fr45, -45
  %switch44 = icmp ult i8 %.off43, 2
  %or.cond = or i1 %switch44, %isdigit36
  br i1 %or.cond, label %.critedge4, label %14

14:                                               ; preds = %.lr.ph52
  %15 = getelementptr inbounds i8, ptr %11, i64 1
  store ptr %15, ptr %0, align 8
  %.not34 = icmp eq ptr %15, %1
  br i1 %.not34, label %.critedge4, label %.lr.ph52, !llvm.loop !11

.critedge4:                                       ; preds = %14, %.lr.ph52, %9, %.lr.ph56, %.preheader46, %.preheader
  %16 = phi ptr [ %1, %.preheader46 ], [ %1, %.preheader ], [ %1, %9 ], [ %6, %.lr.ph56 ], [ %1, %14 ], [ %11, %.lr.ph52 ]
  %17 = ptrtoint ptr %16 to i64
  %18 = ptrtoint ptr %.promoted54 to i64
  %19 = sub i64 %17, %18
  br label %.loopexit

.loopexit:                                        ; preds = %.critedge2, %2, %.critedge4
  %.sroa.3.0 = phi ptr [ %.promoted54, %.critedge4 ], [ @.str, %2 ], [ @.str, %.critedge2 ]
  %.sroa.0.0 = phi i64 [ %19, %.critedge4 ], [ 0, %2 ], [ 0, %.critedge2 ]
  %.fca.0.insert = insertvalue { i64, ptr } poison, i64 %.sroa.0.0, 0
  %.fca.1.insert = insertvalue { i64, ptr } %.fca.0.insert, ptr %.sroa.3.0, 1
  ret { i64, ptr } %.fca.1.insert
}